target datalayout = "e-m:e-p270:32:32-p271:32:32-p272:64:64-i64:64-i128:128-f80:128-n8:16:32:64-S128"
target triple = "x86_64-pc-linux-gnu"

%"class.marisa::grimoire::trie::Tail" = type { %"class.marisa::grimoire::vector::Vector", %"class.marisa::grimoire::vector::BitVector" }
%"class.marisa::grimoire::vector::Vector" = type <{ %"class.marisa::scoped_array", ptr, ptr, i64, i64, i8, [7 x i8] }>
%"class.marisa::scoped_array" = type { ptr }
%"class.marisa::grimoire::vector::BitVector" = type { %"class.marisa::grimoire::vector::Vector.0", i64, i64, %"class.marisa::grimoire::vector::Vector.2", %"class.marisa::grimoire::vector::Vector.4", %"class.marisa::grimoire::vector::Vector.4" }
%"class.marisa::grimoire::vector::Vector.0" = type <{ %"class.marisa::scoped_array", ptr, ptr, i64, i64, i8, [7 x i8] }>
%"class.marisa::grimoire::vector::Vector.2" = type <{ %"class.marisa::scoped_array", ptr, ptr, i64, i64, i8, [7 x i8] }>
%"class.marisa::grimoire::vector::Vector.4" = type <{ %"class.marisa::scoped_array", ptr, ptr, i64, i64, i8, [7 x i8] }>
%"class.marisa::Agent" = type { %"class.marisa::Query", %"class.marisa::Key", %"class.marisa::scoped_ptr" }
%"class.marisa::Query" = type { ptr, i64, i64 }
%"class.marisa::Key" = type { ptr, i32, %"union.marisa::Key::Union" }
%"union.marisa::Key::Union" = type { i32 }
%"class.marisa::scoped_ptr" = type { ptr }
%"class.marisa::grimoire::trie::State" = type { %"class.marisa::grimoire::vector::Vector", %"class.marisa::grimoire::vector::Vector.8", i32, i32, i32, i32 }
%"class.marisa::grimoire::vector::Vector.8" = type <{ %"class.marisa::scoped_array", ptr, ptr, i64, i64, i8, [7 x i8] }>

; Function Attrs: mustprogress nounwind uwtable
define linkonce_odr noundef nonnull align 8 dereferenceable(8) ptr @_ZNK6marisa8grimoire6vector6VectorImEixEm(ptr noundef nonnull align 8 dereferenceable(41) %0, i64 noundef %1) #5 comdat align 2 {
  %3 = alloca ptr, align 8
  %4 = alloca i64, align 8
  store ptr %0, ptr %3, align 8
  store i64 %1, ptr %4, align 8
  %5 = load ptr, ptr %3, align 8
  %6 = getelementptr inbounds %"class.marisa::grimoire::vector::Vector.0", ptr %5, i32 0, i32 2
  %7 = load ptr, ptr %6, align 8
  %8 = load i64, ptr %4, align 8
  %9 = getelementptr inbounds i64, ptr %7, i64 %8
  ret ptr %9
}

; Function Attrs: mustprogress nounwind uwtable
define linkonce_odr noundef nonnull align 8 dereferenceable(112) ptr @_ZNK6marisa10scoped_ptrINS_8grimoire4trie5StateEEdeEv(ptr noundef nonnull align 8 dereferenceable(8) %0) #5 comdat align 2 {
  %2 = alloca ptr, align 8
  store ptr %0, ptr %2, align 8
  %3 = load ptr, ptr %2, align 8
  %4 = getelementptr inbounds %"class.marisa::scoped_ptr", ptr %3, i32 0, i32 0
  %5 = load ptr, ptr %4, align 8
  ret ptr %5
}

; Function Attrs: mustprogress uwtable
define linkonce_odr noundef zeroext i1 @_ZNK6marisa8grimoire6vector9BitVectorixEm(ptr noundef nonnull align 8 dereferenceable(208) %0, i64 noundef %1) #4 comdat align 2 {
  %3 = alloca ptr, align 8
  %4 = alloca i64, align 8
  store ptr %0, ptr %3, align 8
  store i64 %1, ptr %4, align 8
  %5 = load ptr, ptr %3, align 8
  %6 = getelementptr inbounds %"class.marisa::grimoire::vector::BitVector", ptr %5, i32 0, i32 0
  %7 = load i64, ptr %4, align 8
  %8 = udiv i64 %7, 64
  %9 = call noundef nonnull align 8 dereferenceable(8) ptr @_ZNK6marisa8grimoire6vector6VectorImEixEm(ptr noundef nonnull align 8 dereferenceable(41) %6, i64 noundef %8)
  %10 = load i64, ptr %9, align 8
  %11 = load i64, ptr %4, align 8
  %12 = urem i64 %11, 64
  %13 = shl i64 1, %12
  %14 = and i64 %10, %13
  %15 = icmp ne i64 %14, 0
  ret i1 %15
}

; Function Attrs: mustprogress nounwind uwtable
define linkonce_odr noundef i64 @_ZNK6marisa5Query6lengthEv(ptr noundef nonnull align 8 dereferenceable(24) %0) #5 comdat align 2 {
  %2 = alloca ptr, align 8
  store ptr %0, ptr %2, align 8
  %3 = load ptr, ptr %2, align 8
  %4 = getelementptr inbounds %"class.marisa::Query", ptr %3, i32 0, i32 1
  %5 = load i64, ptr %4, align 8
  ret i64 %5
}

; Function Attrs: mustprogress nounwind uwtable
define linkonce_odr void @_ZN6marisa8grimoire4trie5State13set_query_posEm(ptr noundef nonnull align 8 dereferenceable(112) %0, i64 noundef %1) #5 comdat align 2 {
  %3 = alloca ptr, align 8
  %4 = alloca i64, align 8
  store ptr %0, ptr %3, align 8
  store i64 %1, ptr %4, align 8
  %5 = load ptr, ptr %3, align 8
  %6 = load i64, ptr %4, align 8
  %7 = trunc i64 %6 to i32
  %8 = getelementptr inbounds %"class.marisa::grimoire::trie::State", ptr %5, i32 0, i32 3
  store i32 %7, ptr %8, align 4
  ret void
}

; Function Attrs: mustprogress nounwind uwtable
define linkonce_odr noundef signext i8 @_ZNK6marisa5QueryixEm(ptr noundef nonnull align 8 dereferenceable(24) %0, i64 noundef %1) #5 comdat align 2 {
  %3 = alloca ptr, align 8
  %4 = alloca i64, align 8
  store ptr %0, ptr %3, align 8
  store i64 %1, ptr %4, align 8
  %5 = load ptr, ptr %3, align 8
  %6 = getelementptr inbounds %"class.marisa::Query", ptr %5, i32 0, i32 0
  %7 = load ptr, ptr %6, align 8
  %8 = load i64, ptr %4, align 8
  %9 = getelementptr inbounds i8, ptr %7, i64 %8
  %10 = load i8, ptr %9, align 1
  ret i8 %10
}

; Function Attrs: mustprogress nounwind uwtable
define linkonce_odr noundef nonnull align 8 dereferenceable(24) ptr @_ZNK6marisa5Agent5queryEv(ptr noundef nonnull align 8 dereferenceable(48) %0) #5 comdat align 2 {
  %2 = alloca ptr, align 8
  store ptr %0, ptr %2, align 8
  %3 = load ptr, ptr %2, align 8
  %4 = getelementptr inbounds %"class.marisa::Agent", ptr %3, i32 0, i32 0
  ret ptr %4
}

; Function Attrs: mustprogress nounwind uwtable
define linkonce_odr noundef i64 @_ZNK6marisa8grimoire4trie5State9query_posEv(ptr noundef nonnull align 8 dereferenceable(112) %0) #5 comdat align 2 {
  %2 = alloca ptr, align 8
  store ptr %0, ptr %2, align 8
  %3 = load ptr, ptr %2, align 8
  %4 = getelementptr inbounds %"class.marisa::grimoire::trie::State", ptr %3, i32 0, i32 3
  %5 = load i32, ptr %4, align 4
  %6 = zext i32 %5 to i64
  ret i64 %6
}

; Function Attrs: mustprogress nounwind uwtable
define linkonce_odr noundef nonnull align 1 dereferenceable(1) ptr @_ZNK6marisa8grimoire6vector6VectorIcEixEm(ptr noundef nonnull align 8 dereferenceable(41) %0, i64 noundef %1) #5 comdat align 2 {
  %3 = alloca ptr, align 8
  %4 = alloca i64, align 8
  store ptr %0, ptr %3, align 8
  store i64 %1, ptr %4, align 8
  %5 = load ptr, ptr %3, align 8
  %6 = getelementptr inbounds %"class.marisa::grimoire::vector::Vector", ptr %5, i32 0, i32 2
  %7 = load ptr, ptr %6, align 8
  %8 = load i64, ptr %4, align 8
  %9 = getelementptr inbounds i8, ptr %7, i64 %8
  ret ptr %9
}

; Function Attrs: mustprogress nounwind uwtable
define linkonce_odr noundef zeroext i1 @_ZNK6marisa8grimoire6vector9BitVector5emptyEv(ptr noundef nonnull align 8 dereferenceable(208) %0) #5 comdat align 2 {
  %2 = alloca ptr, align 8
  store ptr %0, ptr %2, align 8
  %3 = load ptr, ptr %2, align 8
  %4 = getelementptr inbounds %"class.marisa::grimoire::vector::BitVector", ptr %3, i32 0, i32 1
  %5 = load i64, ptr %4, align 8
  %6 = icmp eq i64 %5, 0
  ret i1 %6
}

; Function Attrs: mustprogress uwtable
define linkonce_odr noundef nonnull align 8 dereferenceable(112) ptr @_ZN6marisa5Agent5stateEv(ptr noundef nonnull align 8 dereferenceable(48) %0) #4 comdat align 2 {
  %2 = alloca ptr, align 8
  store ptr %0, ptr %2, align 8
  %3 = load ptr, ptr %2, align 8
  %4 = getelementptr inbounds %"class.marisa::Agent", ptr %3, i32 0, i32 2
  %5 = call noundef nonnull align 8 dereferenceable(112) ptr @_ZNK6marisa10scoped_ptrINS_8grimoire4trie5StateEEdeEv(ptr noundef nonnull align 8 dereferenceable(8) %4)
  ret ptr %5
}

; Function Attrs: mustprogress uwtable
define noundef zeroext i1 @_ZNK6marisa8grimoire4trie4Tail5matchERNS_5AgentEm(ptr noundef nonnull align 8 dereferenceable(256) %0, ptr noundef nonnull align 8 dereferenceable(48) %1, i64 noundef %2) #4 align 2 {
  %4 = alloca i1, align 1
  %5 = alloca ptr, align 8
  %6 = alloca ptr, align 8
  %7 = alloca i64, align 8
  %8 = alloca ptr, align 8
  %9 = alloca ptr, align 8
  store ptr %0, ptr %5, align 8
  store ptr %1, ptr %6, align 8
  store i64 %2, ptr %7, align 8
  %10 = load ptr, ptr %5, align 8
  %11 = load ptr, ptr %6, align 8
  %12 = call noundef nonnull align 8 dereferenceable(112) ptr @_ZN6marisa5Agent5stateEv(ptr noundef nonnull align 8 dereferenceable(48) %11)
  store ptr %12, ptr %8, align 8
  %13 = getelementptr inbounds %"class.marisa::grimoire::trie::Tail", ptr %10, i32 0, i32 1
  %14 = call noundef zeroext i1 @_ZNK6marisa8grimoire6vector9BitVector5emptyEv(ptr noundef nonnull align 8 dereferenceable(208) %13)
  br i1 %14, label %15, label %60

15:                                               ; preds = %3
  %16 = getelementptr inbounds %"class.marisa::grimoire::trie::Tail", ptr %10, i32 0, i32 0
  %17 = load i64, ptr %7, align 8
  %18 = call noundef nonnull align 1 dereferenceable(1) ptr @_ZNK6marisa8grimoire6vector6VectorIcEixEm(ptr noundef nonnull align 8 dereferenceable(41) %16, i64 noundef %17)
  %19 = load ptr, ptr %8, align 8
  %20 = call noundef i64 @_ZNK6marisa8grimoire4trie5State9query_posEv(ptr noundef nonnull align 8 dereferenceable(112) %19)
  %21 = sub i64 0, %20
  %22 = getelementptr inbounds i8, ptr %18, i64 %21
  store ptr %22, ptr %9, align 8
  br label %23

23:                                               ; preds = %52, %15
  %24 = load ptr, ptr %9, align 8
  %25 = load ptr, ptr %8, align 8
  %26 = call noundef i64 @_ZNK6marisa8grimoire4trie5State9query_posEv(ptr noundef nonnull align 8 dereferenceable(112) %25)
  %27 = getelementptr inbounds i8, ptr %24, i64 %26
  %28 = load i8, ptr %27, align 1
  %29 = sext i8 %28 to i32
  %30 = load ptr, ptr %6, align 8
  %31 = call noundef nonnull align 8 dereferenceable(24) ptr @_ZNK6marisa5Agent5queryEv(ptr noundef nonnull align 8 dereferenceable(48) %30)
  %32 = load ptr, ptr %8, align 8
  %33 = call noundef i64 @_ZNK6marisa8grimoire4trie5State9query_posEv(ptr noundef nonnull align 8 dereferenceable(112) %32)
  %34 = call noundef signext i8 @_ZNK6marisa5QueryixEm(ptr noundef nonnull align 8 dereferenceable(24) %31, i64 noundef %33)
  %35 = sext i8 %34 to i32
  %36 = icmp ne i32 %29, %35
  br i1 %36, label %37, label %38

37:                                               ; preds = %23
  store i1 false, ptr %4, align 1
  br label %94

38:                                               ; preds = %23
  %39 = load ptr, ptr %8, align 8
  %40 = load ptr, ptr %8, align 8
  %41 = call noundef i64 @_ZNK6marisa8grimoire4trie5State9query_posEv(ptr noundef nonnull align 8 dereferenceable(112) %40)
  %42 = add i64 %41, 1
  call void @_ZN6marisa8grimoire4trie5State13set_query_posEm(ptr noundef nonnull align 8 dereferenceable(112) %39, i64 noundef %42)
  %43 = load ptr, ptr %9, align 8
  %44 = load ptr, ptr %8, align 8
  %45 = call noundef i64 @_ZNK6marisa8grimoire4trie5State9query_posEv(ptr noundef nonnull align 8 dereferenceable(112) %44)
  %46 = getelementptr inbounds i8, ptr %43, i64 %45
  %47 = load i8, ptr %46, align 1
  %48 = sext i8 %47 to i32
  %49 = icmp eq i32 %48, 0
  br i1 %49, label %50, label %51

50:                                               ; preds = %38
  store i1 true, ptr %4, align 1
  br label %94

51:                                               ; preds = %38
  br label %52

52:                                               ; preds = %51
  %53 = load ptr, ptr %8, align 8
  %54 = call noundef i64 @_ZNK6marisa8grimoire4trie5State9query_posEv(ptr noundef nonnull align 8 dereferenceable(112) %53)
  %55 = load ptr, ptr %6, align 8
  %56 = call noundef nonnull align 8 dereferenceable(24) ptr @_ZNK6marisa5Agent5queryEv(ptr noundef nonnull align 8 dereferenceable(48) %55)
  %57 = call noundef i64 @_ZNK6marisa5Query6lengthEv(ptr noundef nonnull align 8 dereferenceable(24) %56)
  %58 = icmp ult i64 %54, %57
  br i1 %58, label %23, label %59, !llvm.loop !15

59:                                               ; preds = %52
  store i1 false, ptr %4, align 1
  br label %94

60:                                               ; preds = %3
  br label %61

61:                                               ; preds = %86, %60
  %62 = getelementptr inbounds %"class.marisa::grimoire::trie::Tail", ptr %10, i32 0, i32 0
  %63 = load i64, ptr %7, align 8
  %64 = call noundef nonnull align 1 dereferenceable(1) ptr @_ZNK6marisa8grimoire6vector6VectorIcEixEm(ptr noundef nonnull align 8 dereferenceable(41) %62, i64 noundef %63)
  %65 = load i8, ptr %64, align 1
  %66 = sext i8 %65 to i32
  %67 = load ptr, ptr %6, align 8
  %68 = call noundef nonnull align 8 dereferenceable(24) ptr @_ZNK6marisa5Agent5queryEv(ptr noundef nonnull align 8 dereferenceable(48) %67)
  %69 = load ptr, ptr %8, align 8
  %70 = call noundef i64 @_ZNK6marisa8grimoire4trie5State9query_posEv(ptr noundef nonnull align 8 dereferenceable(112) %69)
  %71 = call noundef signext i8 @_ZNK6marisa5QueryixEm(ptr noundef nonnull align 8 dereferenceable(24) %68, i64 noundef %70)
  %72 = sext i8 %71 to i32
  %73 = icmp ne i32 %66, %72
  br i1 %73, label %74, label %75

74:                                               ; preds = %61
  store i1 false, ptr %4, align 1
  br label %94

75:                                               ; preds = %61
  %76 = load ptr, ptr %8, align 8
  %77 = load ptr, ptr %8, align 8
  %78 = call noundef i64 @_ZNK6marisa8grimoire4trie5State9query_posEv(ptr noundef nonnull align 8 dereferenceable(112) %77)
  %79 = add i64 %78, 1
  call void @_ZN6marisa8grimoire4trie5State13set_query_posEm(ptr noundef nonnull align 8 dereferenceable(112) %76, i64 noundef %79)
  %80 = getelementptr inbounds %"class.marisa::grimoire::trie::Tail", ptr %10, i32 0, i32 1
  %81 = load i64, ptr %7, align 8
  %82 = add i64 %81, 1
  store i64 %82, ptr %7, align 8
  %83 = call noundef zeroext i1 @_ZNK6marisa8grimoire6vector9BitVectorixEm(ptr noundef nonnull align 8 dereferenceable(208) %80, i64 noundef %81)
  br i1 %83, label %84, label %85

84:                                               ; preds = %75
  store i1 true, ptr %4, align 1
  br label %94

85:                                               ; preds = %75
  br label %86

86:                                               ; preds = %85
  %87 = load ptr, ptr %8, align 8
  %88 = call noundef i64 @_ZNK6marisa8grimoire4trie5State9query_posEv(ptr noundef nonnull align 8 dereferenceable(112) %87)
  %89 = load ptr, ptr %6, align 8
  %90 = call noundef nonnull align 8 dereferenceable(24) ptr @_ZNK6marisa5Agent5queryEv(ptr noundef nonnull align 8 dereferenceable(48) %89)
  %91 = call noundef i64 @_ZNK6marisa5Query6lengthEv(ptr noundef nonnull align 8 dereferenceable(24) %90)
  %92 = icmp ult i64 %88, %91
  br i1 %92, label %61, label %93, !llvm.loop !16

93:                                               ; preds = %86
  store i1 false, ptr %4, align 1
  br label %94

94:                                               ; preds = %93, %84, %74, %59, %50, %37
  %95 = load i1, ptr %4, align 1
  ret i1 %95
}