; Function Attrs: mustprogress nofree norecurse nosync nounwind memory(readwrite, inaccessiblemem: none) uwtable
define noundef zeroext i1 @_ZNK6marisa8grimoire4trie4Tail5matchERNS_5AgentEm(ptr nocapture noundef nonnull readonly align 8 dereferenceable(256) %0, ptr nocapture noundef nonnull readonly align 8 dereferenceable(48) %1, i64 noundef %2) local_unnamed_addr #6 align 2 {
  %4 = getelementptr inbounds i8, ptr %1, i64 40
  %5 = load ptr, ptr %4, align 8
  %6 = getelementptr inbounds i8, ptr %0, i64 96
  %7 = load i64, ptr %6, align 8
  %8 = icmp eq i64 %7, 0
  %9 = getelementptr inbounds i8, ptr %0, i64 16
  br i1 %8, label %13, label %.preheader

.preheader:                                       ; preds = %3
  %10 = getelementptr inbounds i8, ptr %5, i64 100
  %11 = getelementptr inbounds i8, ptr %0, i64 64
  %12 = getelementptr inbounds i8, ptr %1, i64 8
  %.pre = load i32, ptr %10, align 4
  br label %38

13:                                               ; preds = %3
  %14 = load ptr, ptr %9, align 8
  %15 = getelementptr inbounds i8, ptr %14, i64 %2
  %16 = getelementptr inbounds i8, ptr %5, i64 100
  %17 = load i32, ptr %16, align 4
  %18 = zext i32 %17 to i64
  %19 = sub nsw i64 0, %18
  %20 = getelementptr inbounds i8, ptr %15, i64 %19
  %21 = getelementptr inbounds i8, ptr %1, i64 8
  %.pre29 = load i8, ptr %15, align 1
  br label %22

22:                                               ; preds = %35, %13
  %23 = phi i8 [ %33, %35 ], [ %.pre29, %13 ]
  %24 = phi i32 [ %30, %35 ], [ %17, %13 ]
  %25 = zext i32 %24 to i64
  %26 = load ptr, ptr %1, align 8
  %27 = getelementptr inbounds i8, ptr %26, i64 %25
  %28 = load i8, ptr %27, align 1
  %.not23 = icmp eq i8 %23, %28
  br i1 %.not23, label %29, label %.loopexit

29:                                               ; preds = %22
  %30 = add i32 %24, 1
  store i32 %30, ptr %16, align 4
  %31 = zext i32 %30 to i64
  %32 = getelementptr inbounds i8, ptr %20, i64 %31
  %33 = load i8, ptr %32, align 1
  %34 = icmp eq i8 %33, 0
  br i1 %34, label %.loopexit, label %35

35:                                               ; preds = %29
  %36 = load i64, ptr %21, align 8
  %37 = icmp ugt i64 %36, %31
  br i1 %37, label %22, label %.loopexit, !llvm.loop !17

38:                                               ; preds = %.preheader, %56
  %39 = phi i32 [ %48, %56 ], [ %.pre, %.preheader ]
  %.022 = phi i64 [ %57, %56 ], [ %2, %.preheader ]
  %40 = load ptr, ptr %9, align 8
  %41 = getelementptr inbounds i8, ptr %40, i64 %.022
  %42 = load i8, ptr %41, align 1
  %43 = zext i32 %39 to i64
  %44 = load ptr, ptr %1, align 8
  %45 = getelementptr inbounds i8, ptr %44, i64 %43
  %46 = load i8, ptr %45, align 1
  %.not = icmp eq i8 %42, %46
  br i1 %.not, label %47, label %.loopexit

47:                                               ; preds = %38
  %48 = add i32 %39, 1
  store i32 %48, ptr %10, align 4
  %49 = lshr i64 %.022, 6
  %50 = load ptr, ptr %11, align 8
  %51 = getelementptr inbounds i64, ptr %50, i64 %49
  %52 = load i64, ptr %51, align 8
  %53 = and i64 %.022, 63
  %54 = shl nuw i64 1, %53
  %55 = and i64 %52, %54
  %.not24 = icmp eq i64 %55, 0
  br i1 %.not24, label %56, label %.loopexit

56:                                               ; preds = %47
  %57 = add i64 %.022, 1
  %58 = zext i32 %48 to i64
  %59 = load i64, ptr %12, align 8
  %60 = icmp ugt i64 %59, %58
  br i1 %60, label %38, label %.loopexit, !llvm.loop !18

.loopexit:                                        ; preds = %56, %47, %38, %35, %29, %22
  %.0 = phi i1 [ false, %35 ], [ true, %29 ], [ false, %22 ], [ false, %56 ], [ true, %47 ], [ false, %38 ]
  ret i1 %.0
}